#include <math.h>
#include <stdio.h>
#include <stdlib.h>
#include <string.h>

int main()
{
    int n,k;
    scanf("%d%d",&n,&k);
    int a[1000];
    int i,j;
    int b,count=0;
    b=n*(n-1);
    for(i=1;i<=n;i++)
    {scanf("%d",&a[i-1]);}
    for(i=1;i<=n;i++){
         for(j=1;j<=n;j++){
              if(i!=j){
                  if(a[i-1]+a[j-1]==k)
                      {printf("yes");
                       break;}
                   else{count++;}
              }
          }
         if(a[i-1]+a[j-1]==k){break;}
    }
    if(count==b)
    {printf("no");}
    return 0;
}